; Function Attrs: nounwind uwtable
define internal fastcc ptr @unicode_copy(ptr noundef %0) unnamed_addr #0 {
  %.not = icmp eq ptr %0, null
  br i1 %.not, label %13, label %2

2:                                                ; preds = %1
  %3 = tail call ptr @Py_TYPE(ptr noundef nonnull %0) #4
  %4 = tail call i64 @PyType_GetFlags(ptr noundef %3) #4
  %5 = and i64 %4, 268435456
  %.not13 = icmp eq i64 %5, 0
  br i1 %.not13, label %6, label %7

6:                                                ; preds = %2
  tail call void @_Py_IncRef(ptr noundef nonnull %0) #4
  br label %13

7:                                                ; preds = %2
  %8 = tail call ptr @PyUnicode_AsUTF8String(ptr noundef nonnull %0) #4
  %.not14 = icmp eq ptr %8, null
  br i1 %.not14, label %13, label %9

9:                                                ; preds = %7
  %10 = tail call ptr @PyBytes_AsString(ptr noundef nonnull %8) #4
  %11 = tail call i64 @PyBytes_Size(ptr noundef nonnull %8) #4
  %12 = tail call ptr @PyUnicode_DecodeUTF8(ptr noundef %10, i64 noundef %11, ptr noundef null) #4
  tail call void @_Py_DecRef(ptr noundef nonnull %8) #4
  br label %13

13:                                               ; preds = %9, %7, %1, %6
  %.0 = phi ptr [ %0, %6 ], [ null, %1 ], [ %12, %9 ], [ null, %7 ]
  ret ptr %.0
}